target datalayout = "e-m:e-p270:32:32-p271:32:32-p272:64:64-i64:64-i128:128-f80:128-n8:16:32:64-S128"
target triple = "x86_64-pc-linux-gnu"

%struct.lv_area_t = type { i32, i32, i32, i32 }

; Function Attrs: nounwind uwtable
define i32 @lv_area_get_height(ptr noundef %0) #0 {
  %2 = alloca ptr, align 8
  store ptr %0, ptr %2, align 8, !tbaa !3
  %3 = load ptr, ptr %2, align 8, !tbaa !3
  %4 = getelementptr inbounds nuw %struct.lv_area_t, ptr %3, i32 0, i32 3
  %5 = load i32, ptr %4, align 4, !tbaa !13
  %6 = load ptr, ptr %2, align 8, !tbaa !3
  %7 = getelementptr inbounds nuw %struct.lv_area_t, ptr %6, i32 0, i32 1
  %8 = load i32, ptr %7, align 4, !tbaa !11
  %9 = sub nsw i32 %5, %8
  %10 = add nsw i32 %9, 1
  ret i32 %10
}