; Function Attrs: mustprogress nofree norecurse nosync nounwind willreturn memory(argmem: read) uwtable
define range(i32 -2147483647, -2147483648) i32 @lv_area_get_height(ptr noundef readonly captures(none) %0) local_unnamed_addr #3 {
  %2 = getelementptr inbounds nuw i8, ptr %0, i64 12
  %3 = load i32, ptr %2, align 4, !tbaa !10
  %4 = getelementptr inbounds nuw i8, ptr %0, i64 4
  %5 = load i32, ptr %4, align 4, !tbaa !8
  %6 = add i32 %3, 1
  %7 = sub i32 %6, %5
  ret i32 %7
}